target datalayout = "e-m:e-p270:32:32-p271:32:32-p272:64:64-i64:64-i128:128-f80:128-n8:16:32:64-S128"
target triple = "x86_64-pc-linux-gnu"

%struct.RelFileLocator = type { i32, i32, i32 }

@.str.14 = private unnamed_addr constant [13 x i8] c"global/%u.%u\00", align 1
@.str.15 = private unnamed_addr constant [14 x i8] c"base/%u/%u.%u\00", align 1
@.str.16 = private unnamed_addr constant [38 x i8] c"pg_tblspc/%u/PG_18_202502112/%u/%u.%u\00", align 1
@.str.17 = private unnamed_addr constant [6 x i8] c"%s.%u\00", align 1

; Function Attrs: nounwind uwtable
define internal ptr @datasegpath(i64 %0, i32 %1, i32 noundef %2, i32 noundef %3) #0 {
  %5 = alloca ptr, align 8
  %6 = alloca %struct.RelFileLocator, align 4
  %7 = alloca { i64, i32 }, align 4
  %8 = alloca i32, align 4
  %9 = alloca i32, align 4
  %10 = alloca ptr, align 8
  %11 = alloca ptr, align 8
  %12 = alloca i32, align 4
  %13 = getelementptr inbounds nuw { i64, i32 }, ptr %7, i32 0, i32 0
  store i64 %0, ptr %13, align 4
  %14 = getelementptr inbounds nuw { i64, i32 }, ptr %7, i32 0, i32 1
  store i32 %1, ptr %14, align 4
  call void @llvm.memcpy.p0.p0.i64(ptr align 4 %6, ptr align 4 %7, i64 12, i1 false)
  store i32 %2, ptr %8, align 4
  store i32 %3, ptr %9, align 4
  call void @llvm.lifetime.start.p0(i64 8, ptr %10) #11
  call void @llvm.lifetime.start.p0(i64 8, ptr %11) #11
  %15 = getelementptr inbounds nuw %struct.RelFileLocator, ptr %6, i32 0, i32 1
  %16 = load i32, ptr %15, align 4
  %17 = getelementptr inbounds nuw %struct.RelFileLocator, ptr %6, i32 0, i32 0
  %18 = load i32, ptr %17, align 4
  %19 = getelementptr inbounds nuw %struct.RelFileLocator, ptr %6, i32 0, i32 2
  %20 = load i32, ptr %19, align 4
  %21 = load i32, ptr %8, align 4
  %22 = call ptr @GetRelationPath(i32 noundef %16, i32 noundef %18, i32 noundef %20, i32 noundef -1, i32 noundef %21)
  store ptr %22, ptr %10, align 8
  %23 = load i32, ptr %9, align 4
  %24 = icmp ugt i32 %23, 0
  br i1 %24, label %25, label %31

25:                                               ; preds = %4
  %26 = load ptr, ptr %10, align 8
  %27 = load i32, ptr %9, align 4
  %28 = call ptr (ptr, ...) @psprintf(ptr noundef @.str.17, ptr noundef %26, i32 noundef %27)
  store ptr %28, ptr %11, align 8
  %29 = load ptr, ptr %10, align 8
  call void @pfree(ptr noundef %29)
  %30 = load ptr, ptr %11, align 8
  store ptr %30, ptr %5, align 8
  store i32 1, ptr %12, align 4
  br label %33

31:                                               ; preds = %4
  %32 = load ptr, ptr %10, align 8
  store ptr %32, ptr %5, align 8
  store i32 1, ptr %12, align 4
  br label %33

33:                                               ; preds = %31, %25
  call void @llvm.lifetime.end.p0(i64 8, ptr %11) #11
  call void @llvm.lifetime.end.p0(i64 8, ptr %10) #11
  %34 = load ptr, ptr %5, align 8
  ret ptr %34
}

; Function Attrs: nounwind uwtable
define internal zeroext i1 @isRelDataFile(ptr noundef %0) #0 {
  %2 = alloca ptr, align 8
  %3 = alloca %struct.RelFileLocator, align 4
  %4 = alloca i32, align 4
  %5 = alloca i32, align 4
  %6 = alloca i8, align 1
  %7 = alloca ptr, align 8
  %8 = alloca { i64, i32 }, align 4
  store ptr %0, ptr %2, align 8
  call void @llvm.lifetime.start.p0(i64 12, ptr %3) #11
  call void @llvm.lifetime.start.p0(i64 4, ptr %4) #11
  call void @llvm.lifetime.start.p0(i64 4, ptr %5) #11
  call void @llvm.lifetime.start.p0(i64 1, ptr %6) #11
  %9 = getelementptr inbounds nuw %struct.RelFileLocator, ptr %3, i32 0, i32 0
  store i32 0, ptr %9, align 4
  %10 = getelementptr inbounds nuw %struct.RelFileLocator, ptr %3, i32 0, i32 1
  store i32 0, ptr %10, align 4
  %11 = getelementptr inbounds nuw %struct.RelFileLocator, ptr %3, i32 0, i32 2
  store i32 0, ptr %11, align 4
  store i32 0, ptr %4, align 4
  store i8 0, ptr %6, align 1
  %12 = load ptr, ptr %2, align 8
  %13 = getelementptr inbounds nuw %struct.RelFileLocator, ptr %3, i32 0, i32 2
  %14 = call i32 (ptr, ptr, ...) @__isoc99_sscanf(ptr noundef %12, ptr noundef @.str.14, ptr noundef %13, ptr noundef %4) #11
  store i32 %14, ptr %5, align 4
  %15 = load i32, ptr %5, align 4
  %16 = icmp eq i32 %15, 1
  br i1 %16, label %20, label %17

17:                                               ; preds = %1
  %18 = load i32, ptr %5, align 4
  %19 = icmp eq i32 %18, 2
  br i1 %19, label %20, label %23

20:                                               ; preds = %17, %1
  %21 = getelementptr inbounds nuw %struct.RelFileLocator, ptr %3, i32 0, i32 0
  store i32 1664, ptr %21, align 4
  %22 = getelementptr inbounds nuw %struct.RelFileLocator, ptr %3, i32 0, i32 1
  store i32 0, ptr %22, align 4
  store i8 1, ptr %6, align 1
  br label %49

23:                                               ; preds = %17
  %24 = load ptr, ptr %2, align 8
  %25 = getelementptr inbounds nuw %struct.RelFileLocator, ptr %3, i32 0, i32 1
  %26 = getelementptr inbounds nuw %struct.RelFileLocator, ptr %3, i32 0, i32 2
  %27 = call i32 (ptr, ptr, ...) @__isoc99_sscanf(ptr noundef %24, ptr noundef @.str.15, ptr noundef %25, ptr noundef %26, ptr noundef %4) #11
  store i32 %27, ptr %5, align 4
  %28 = load i32, ptr %5, align 4
  %29 = icmp eq i32 %28, 2
  br i1 %29, label %33, label %30

30:                                               ; preds = %23
  %31 = load i32, ptr %5, align 4
  %32 = icmp eq i32 %31, 3
  br i1 %32, label %33, label %35

33:                                               ; preds = %30, %23
  %34 = getelementptr inbounds nuw %struct.RelFileLocator, ptr %3, i32 0, i32 0
  store i32 1663, ptr %34, align 4
  store i8 1, ptr %6, align 1
  br label %48

35:                                               ; preds = %30
  %36 = load ptr, ptr %2, align 8
  %37 = getelementptr inbounds nuw %struct.RelFileLocator, ptr %3, i32 0, i32 0
  %38 = getelementptr inbounds nuw %struct.RelFileLocator, ptr %3, i32 0, i32 1
  %39 = getelementptr inbounds nuw %struct.RelFileLocator, ptr %3, i32 0, i32 2
  %40 = call i32 (ptr, ptr, ...) @__isoc99_sscanf(ptr noundef %36, ptr noundef @.str.16, ptr noundef %37, ptr noundef %38, ptr noundef %39, ptr noundef %4) #11
  store i32 %40, ptr %5, align 4
  %41 = load i32, ptr %5, align 4
  %42 = icmp eq i32 %41, 3
  br i1 %42, label %46, label %43

43:                                               ; preds = %35
  %44 = load i32, ptr %5, align 4
  %45 = icmp eq i32 %44, 4
  br i1 %45, label %46, label %47

46:                                               ; preds = %43, %35
  store i8 1, ptr %6, align 1
  br label %47

47:                                               ; preds = %46, %43
  br label %48

48:                                               ; preds = %47, %33
  br label %49

49:                                               ; preds = %48, %20
  %50 = load i8, ptr %6, align 1, !range !4, !noundef !5
  %51 = trunc i8 %50 to i1
  br i1 %51, label %52, label %66

52:                                               ; preds = %49
  call void @llvm.lifetime.start.p0(i64 8, ptr %7) #11
  %53 = load i32, ptr %4, align 4
  call void @llvm.memcpy.p0.p0.i64(ptr align 4 %8, ptr align 4 %3, i64 12, i1 false)
  %54 = getelementptr inbounds nuw { i64, i32 }, ptr %8, i32 0, i32 0
  %55 = load i64, ptr %54, align 4
  %56 = getelementptr inbounds nuw { i64, i32 }, ptr %8, i32 0, i32 1
  %57 = load i32, ptr %56, align 4
  %58 = call ptr @datasegpath(i64 %55, i32 %57, i32 noundef 0, i32 noundef %53)
  store ptr %58, ptr %7, align 8
  %59 = load ptr, ptr %7, align 8
  %60 = load ptr, ptr %2, align 8
  %61 = call i32 @strcmp(ptr noundef %59, ptr noundef %60) #12
  %62 = icmp ne i32 %61, 0
  br i1 %62, label %63, label %64

63:                                               ; preds = %52
  store i8 0, ptr %6, align 1
  br label %64

64:                                               ; preds = %63, %52
  %65 = load ptr, ptr %7, align 8
  call void @pfree(ptr noundef %65)
  call void @llvm.lifetime.end.p0(i64 8, ptr %7) #11
  br label %66

66:                                               ; preds = %64, %49
  %67 = load i8, ptr %6, align 1, !range !4, !noundef !5
  %68 = trunc i8 %67 to i1
  call void @llvm.lifetime.end.p0(i64 1, ptr %6) #11
  call void @llvm.lifetime.end.p0(i64 4, ptr %5) #11
  call void @llvm.lifetime.end.p0(i64 4, ptr %4) #11
  call void @llvm.lifetime.end.p0(i64 12, ptr %3) #11
  ret i1 %68
}