; Function Attrs: nounwind uwtable
define internal fastcc zeroext i1 @isRelDataFile(ptr noundef readonly captures(none) %0) unnamed_addr #0 {
  %2 = alloca %struct.RelFileLocator, align 8
  %3 = alloca i32, align 4
  call void @llvm.lifetime.start.p0(i64 12, ptr nonnull %2) #13
  call void @llvm.lifetime.start.p0(i64 4, ptr nonnull %3) #13
  store i32 0, ptr %2, align 8
  %4 = getelementptr inbounds nuw i8, ptr %2, i64 4
  store i32 0, ptr %4, align 4
  %5 = getelementptr inbounds nuw i8, ptr %2, i64 8
  store i32 0, ptr %5, align 8
  store i32 0, ptr %3, align 4
  %6 = call i32 (ptr, ptr, ...) @__isoc99_sscanf(ptr noundef %0, ptr noundef nonnull @.str.14, ptr noundef nonnull %5, ptr noundef nonnull %3) #13
  %7 = add i32 %6, -1
  %or.cond = icmp ult i32 %7, 2
  br i1 %or.cond, label %8, label %9

8:                                                ; preds = %1
  store i32 1664, ptr %2, align 8
  store i32 0, ptr %4, align 4
  br label %.thread

9:                                                ; preds = %1
  %10 = call i32 (ptr, ptr, ...) @__isoc99_sscanf(ptr noundef %0, ptr noundef nonnull @.str.15, ptr noundef nonnull %4, ptr noundef nonnull %5, ptr noundef nonnull %3) #13
  %11 = and i32 %10, -2
  %or.cond3 = icmp eq i32 %11, 2
  br i1 %or.cond3, label %12, label %13

12:                                               ; preds = %9
  store i32 1663, ptr %2, align 8
  br label %.thread

13:                                               ; preds = %9
  %14 = call i32 (ptr, ptr, ...) @__isoc99_sscanf(ptr noundef %0, ptr noundef nonnull @.str.16, ptr noundef nonnull %2, ptr noundef nonnull %4, ptr noundef nonnull %5, ptr noundef nonnull %3) #13
  %15 = add i32 %14, -3
  %or.cond5 = icmp ult i32 %15, 2
  br i1 %or.cond5, label %.thread, label %21

.thread:                                          ; preds = %12, %8, %13
  %16 = load i32, ptr %3, align 4
  %.sroa.0.0.copyload = load i64, ptr %2, align 8
  %.sroa.2.0.copyload = load i32, ptr %5, align 8
  %.sroa.06.0.extract.trunc.i = trunc i64 %.sroa.0.0.copyload to i32
  %.sroa.27.0.extract.shift.i = lshr i64 %.sroa.0.0.copyload, 32
  %.sroa.27.0.extract.trunc.i = trunc nuw i64 %.sroa.27.0.extract.shift.i to i32
  %17 = call ptr @GetRelationPath(i32 noundef %.sroa.27.0.extract.trunc.i, i32 noundef %.sroa.06.0.extract.trunc.i, i32 noundef %.sroa.2.0.copyload, i32 noundef -1, i32 noundef 0) #13
  %.not.i = icmp eq i32 %16, 0
  br i1 %.not.i, label %datasegpath.exit, label %18

18:                                               ; preds = %.thread
  %19 = call ptr (ptr, ...) @psprintf(ptr noundef nonnull @.str.17, ptr noundef %17, i32 noundef %16) #13
  call void @pfree(ptr noundef %17) #13
  br label %datasegpath.exit

datasegpath.exit:                                 ; preds = %.thread, %18
  %.0.i = phi ptr [ %19, %18 ], [ %17, %.thread ]
  %20 = call i32 @strcmp(ptr noundef nonnull dereferenceable(1) %.0.i, ptr noundef nonnull dereferenceable(1) %0) #15
  %.not = icmp eq i32 %20, 0
  call void @pfree(ptr noundef nonnull %.0.i) #13
  br label %21

21:                                               ; preds = %datasegpath.exit, %13
  %.1 = phi i1 [ %.not, %datasegpath.exit ], [ false, %13 ]
  call void @llvm.lifetime.end.p0(i64 4, ptr nonnull %3) #13
  call void @llvm.lifetime.end.p0(i64 12, ptr nonnull %2) #13
  ret i1 %.1
}